target datalayout = "e-m:e-p270:32:32-p271:32:32-p272:64:64-i64:64-i128:128-f80:128-n8:16:32:64-S128"
target triple = "x86_64-pc-linux-gnu"

%struct._hashlibstate = type { ptr, ptr, ptr, ptr, ptr, ptr }

; Function Attrs: inlinehint nounwind uwtable
define internal ptr @get_hashlib_state(ptr noundef %0) #4 {
  %2 = alloca ptr, align 8
  %3 = alloca ptr, align 8
  store ptr %0, ptr %2, align 8, !tbaa !14
  call void @llvm.lifetime.start.p0(i64 8, ptr %3) #9
  %4 = load ptr, ptr %2, align 8, !tbaa !14
  %5 = call ptr @PyModule_GetState(ptr noundef %4)
  store ptr %5, ptr %3, align 8, !tbaa !3
  %6 = load ptr, ptr %3, align 8, !tbaa !3
  call void @llvm.lifetime.end.p0(i64 8, ptr %3) #9
  ret ptr %6
}

; Function Attrs: nounwind uwtable
define internal i32 @hashlib_traverse(ptr noundef %0, ptr noundef %1, ptr noundef %2) #0 {
  %4 = alloca i32, align 4
  %5 = alloca ptr, align 8
  %6 = alloca ptr, align 8
  %7 = alloca ptr, align 8
  %8 = alloca ptr, align 8
  %9 = alloca i32, align 4
  %10 = alloca i32, align 4
  %11 = alloca i32, align 4
  %12 = alloca i32, align 4
  %13 = alloca i32, align 4
  %14 = alloca i32, align 4
  store ptr %0, ptr %5, align 8, !tbaa !14
  store ptr %1, ptr %6, align 8, !tbaa !3
  store ptr %2, ptr %7, align 8, !tbaa !3
  call void @llvm.lifetime.start.p0(i64 8, ptr %8) #9
  %15 = load ptr, ptr %5, align 8, !tbaa !14
  %16 = call ptr @get_hashlib_state(ptr noundef %15)
  store ptr %16, ptr %8, align 8, !tbaa !3
  br label %17

17:                                               ; preds = %3
  %18 = load ptr, ptr %8, align 8, !tbaa !3
  %19 = getelementptr inbounds nuw %struct._hashlibstate, ptr %18, i32 0, i32 0
  %20 = load ptr, ptr %19, align 8, !tbaa !57
  %21 = icmp ne ptr %20, null
  br i1 %21, label %22, label %37

22:                                               ; preds = %17
  call void @llvm.lifetime.start.p0(i64 4, ptr %9) #9
  %23 = load ptr, ptr %6, align 8, !tbaa !3
  %24 = load ptr, ptr %8, align 8, !tbaa !3
  %25 = getelementptr inbounds nuw %struct._hashlibstate, ptr %24, i32 0, i32 0
  %26 = load ptr, ptr %25, align 8, !tbaa !57
  %27 = load ptr, ptr %7, align 8, !tbaa !3
  %28 = call i32 %23(ptr noundef %26, ptr noundef %27)
  store i32 %28, ptr %9, align 4, !tbaa !19
  %29 = load i32, ptr %9, align 4, !tbaa !19
  %30 = icmp ne i32 %29, 0
  br i1 %30, label %31, label %33

31:                                               ; preds = %22
  %32 = load i32, ptr %9, align 4, !tbaa !19
  store i32 %32, ptr %4, align 4
  store i32 1, ptr %10, align 4
  br label %34

33:                                               ; preds = %22
  store i32 0, ptr %10, align 4
  br label %34

34:                                               ; preds = %33, %31
  call void @llvm.lifetime.end.p0(i64 4, ptr %9) #9
  %35 = load i32, ptr %10, align 4
  switch i32 %35, label %132 [
    i32 0, label %36
  ]

36:                                               ; preds = %34
  br label %37

37:                                               ; preds = %36, %17
  br label %38

38:                                               ; preds = %37
  br label %39

39:                                               ; preds = %38
  br label %40

40:                                               ; preds = %39
  %41 = load ptr, ptr %8, align 8, !tbaa !3
  %42 = getelementptr inbounds nuw %struct._hashlibstate, ptr %41, i32 0, i32 1
  %43 = load ptr, ptr %42, align 8, !tbaa !60
  %44 = icmp ne ptr %43, null
  br i1 %44, label %45, label %60

45:                                               ; preds = %40
  call void @llvm.lifetime.start.p0(i64 4, ptr %11) #9
  %46 = load ptr, ptr %6, align 8, !tbaa !3
  %47 = load ptr, ptr %8, align 8, !tbaa !3
  %48 = getelementptr inbounds nuw %struct._hashlibstate, ptr %47, i32 0, i32 1
  %49 = load ptr, ptr %48, align 8, !tbaa !60
  %50 = load ptr, ptr %7, align 8, !tbaa !3
  %51 = call i32 %46(ptr noundef %49, ptr noundef %50)
  store i32 %51, ptr %11, align 4, !tbaa !19
  %52 = load i32, ptr %11, align 4, !tbaa !19
  %53 = icmp ne i32 %52, 0
  br i1 %53, label %54, label %56

54:                                               ; preds = %45
  %55 = load i32, ptr %11, align 4, !tbaa !19
  store i32 %55, ptr %4, align 4
  store i32 1, ptr %10, align 4
  br label %57

56:                                               ; preds = %45
  store i32 0, ptr %10, align 4
  br label %57

57:                                               ; preds = %56, %54
  call void @llvm.lifetime.end.p0(i64 4, ptr %11) #9
  %58 = load i32, ptr %10, align 4
  switch i32 %58, label %132 [
    i32 0, label %59
  ]

59:                                               ; preds = %57
  br label %60

60:                                               ; preds = %59, %40
  br label %61

61:                                               ; preds = %60
  br label %62

62:                                               ; preds = %61
  br label %63

63:                                               ; preds = %62
  %64 = load ptr, ptr %8, align 8, !tbaa !3
  %65 = getelementptr inbounds nuw %struct._hashlibstate, ptr %64, i32 0, i32 2
  %66 = load ptr, ptr %65, align 8, !tbaa !61
  %67 = icmp ne ptr %66, null
  br i1 %67, label %68, label %83

68:                                               ; preds = %63
  call void @llvm.lifetime.start.p0(i64 4, ptr %12) #9
  %69 = load ptr, ptr %6, align 8, !tbaa !3
  %70 = load ptr, ptr %8, align 8, !tbaa !3
  %71 = getelementptr inbounds nuw %struct._hashlibstate, ptr %70, i32 0, i32 2
  %72 = load ptr, ptr %71, align 8, !tbaa !61
  %73 = load ptr, ptr %7, align 8, !tbaa !3
  %74 = call i32 %69(ptr noundef %72, ptr noundef %73)
  store i32 %74, ptr %12, align 4, !tbaa !19
  %75 = load i32, ptr %12, align 4, !tbaa !19
  %76 = icmp ne i32 %75, 0
  br i1 %76, label %77, label %79

77:                                               ; preds = %68
  %78 = load i32, ptr %12, align 4, !tbaa !19
  store i32 %78, ptr %4, align 4
  store i32 1, ptr %10, align 4
  br label %80

79:                                               ; preds = %68
  store i32 0, ptr %10, align 4
  br label %80

80:                                               ; preds = %79, %77
  call void @llvm.lifetime.end.p0(i64 4, ptr %12) #9
  %81 = load i32, ptr %10, align 4
  switch i32 %81, label %132 [
    i32 0, label %82
  ]

82:                                               ; preds = %80
  br label %83

83:                                               ; preds = %82, %63
  br label %84

84:                                               ; preds = %83
  br label %85

85:                                               ; preds = %84
  br label %86

86:                                               ; preds = %85
  %87 = load ptr, ptr %8, align 8, !tbaa !3
  %88 = getelementptr inbounds nuw %struct._hashlibstate, ptr %87, i32 0, i32 3
  %89 = load ptr, ptr %88, align 8, !tbaa !62
  %90 = icmp ne ptr %89, null
  br i1 %90, label %91, label %106

91:                                               ; preds = %86
  call void @llvm.lifetime.start.p0(i64 4, ptr %13) #9
  %92 = load ptr, ptr %6, align 8, !tbaa !3
  %93 = load ptr, ptr %8, align 8, !tbaa !3
  %94 = getelementptr inbounds nuw %struct._hashlibstate, ptr %93, i32 0, i32 3
  %95 = load ptr, ptr %94, align 8, !tbaa !62
  %96 = load ptr, ptr %7, align 8, !tbaa !3
  %97 = call i32 %92(ptr noundef %95, ptr noundef %96)
  store i32 %97, ptr %13, align 4, !tbaa !19
  %98 = load i32, ptr %13, align 4, !tbaa !19
  %99 = icmp ne i32 %98, 0
  br i1 %99, label %100, label %102

100:                                              ; preds = %91
  %101 = load i32, ptr %13, align 4, !tbaa !19
  store i32 %101, ptr %4, align 4
  store i32 1, ptr %10, align 4
  br label %103

102:                                              ; preds = %91
  store i32 0, ptr %10, align 4
  br label %103

103:                                              ; preds = %102, %100
  call void @llvm.lifetime.end.p0(i64 4, ptr %13) #9
  %104 = load i32, ptr %10, align 4
  switch i32 %104, label %132 [
    i32 0, label %105
  ]

105:                                              ; preds = %103
  br label %106

106:                                              ; preds = %105, %86
  br label %107

107:                                              ; preds = %106
  br label %108

108:                                              ; preds = %107
  br label %109

109:                                              ; preds = %108
  %110 = load ptr, ptr %8, align 8, !tbaa !3
  %111 = getelementptr inbounds nuw %struct._hashlibstate, ptr %110, i32 0, i32 4
  %112 = load ptr, ptr %111, align 8, !tbaa !63
  %113 = icmp ne ptr %112, null
  br i1 %113, label %114, label %129

114:                                              ; preds = %109
  call void @llvm.lifetime.start.p0(i64 4, ptr %14) #9
  %115 = load ptr, ptr %6, align 8, !tbaa !3
  %116 = load ptr, ptr %8, align 8, !tbaa !3
  %117 = getelementptr inbounds nuw %struct._hashlibstate, ptr %116, i32 0, i32 4
  %118 = load ptr, ptr %117, align 8, !tbaa !63
  %119 = load ptr, ptr %7, align 8, !tbaa !3
  %120 = call i32 %115(ptr noundef %118, ptr noundef %119)
  store i32 %120, ptr %14, align 4, !tbaa !19
  %121 = load i32, ptr %14, align 4, !tbaa !19
  %122 = icmp ne i32 %121, 0
  br i1 %122, label %123, label %125

123:                                              ; preds = %114
  %124 = load i32, ptr %14, align 4, !tbaa !19
  store i32 %124, ptr %4, align 4
  store i32 1, ptr %10, align 4
  br label %126

125:                                              ; preds = %114
  store i32 0, ptr %10, align 4
  br label %126

126:                                              ; preds = %125, %123
  call void @llvm.lifetime.end.p0(i64 4, ptr %14) #9
  %127 = load i32, ptr %10, align 4
  switch i32 %127, label %132 [
    i32 0, label %128
  ]

128:                                              ; preds = %126
  br label %129

129:                                              ; preds = %128, %109
  br label %130

130:                                              ; preds = %129
  br label %131

131:                                              ; preds = %130
  store i32 0, ptr %4, align 4
  store i32 1, ptr %10, align 4
  br label %132

132:                                              ; preds = %131, %126, %103, %80, %57, %34
  call void @llvm.lifetime.end.p0(i64 8, ptr %8) #9
  %133 = load i32, ptr %4, align 4
  ret i32 %133
}